target datalayout = "e-m:e-p270:32:32-p271:32:32-p272:64:64-i64:64-i128:128-f80:128-n8:16:32:64-S128"
target triple = "x86_64-pc-linux-gnu"

%struct.rb_id_table = type { i32, i32, i32, ptr }
%struct.rb_id_item = type { i32, i32, i64 }

; Function Attrs: inlinehint nounwind sspstrong uwtable
define internal i32 @rb_id_to_serial(i64 noundef %0) #4 {
  %2 = alloca i32, align 4
  %3 = alloca i64, align 8
  store i64 %0, ptr %3, align 8, !tbaa !11
  %4 = load i64, ptr %3, align 8, !tbaa !11
  %5 = icmp ugt i64 %4, 170
  br i1 %5, label %6, label %10

6:                                                ; preds = %1
  %7 = load i64, ptr %3, align 8, !tbaa !11
  %8 = lshr i64 %7, 4
  %9 = trunc i64 %8 to i32
  store i32 %9, ptr %2, align 4
  br label %13

10:                                               ; preds = %1
  %11 = load i64, ptr %3, align 8, !tbaa !11
  %12 = trunc i64 %11 to i32
  store i32 %12, ptr %2, align 4
  br label %13

13:                                               ; preds = %10, %6
  %14 = load i32, ptr %2, align 4
  ret i32 %14
}

; Function Attrs: nounwind sspstrong uwtable
define internal i32 @hash_table_index(ptr noundef %0, i32 noundef %1) #0 {
  %3 = alloca i32, align 4
  %4 = alloca ptr, align 8
  %5 = alloca i32, align 4
  %6 = alloca i32, align 4
  %7 = alloca i32, align 4
  %8 = alloca i32, align 4
  %9 = alloca i32, align 4
  store ptr %0, ptr %4, align 8, !tbaa !61
  store i32 %1, ptr %5, align 4, !tbaa !21
  %10 = load ptr, ptr %4, align 8, !tbaa !61
  %11 = getelementptr inbounds nuw %struct.rb_id_table, ptr %10, i32 0, i32 0
  %12 = load i32, ptr %11, align 8, !tbaa !63
  %13 = icmp sgt i32 %12, 0
  br i1 %13, label %14, label %55

14:                                               ; preds = %2
  call void @llvm.lifetime.start.p0(i64 4, ptr %6) #24
  %15 = load ptr, ptr %4, align 8, !tbaa !61
  %16 = getelementptr inbounds nuw %struct.rb_id_table, ptr %15, i32 0, i32 0
  %17 = load i32, ptr %16, align 8, !tbaa !63
  %18 = sub i32 %17, 1
  store i32 %18, ptr %6, align 4, !tbaa !21
  call void @llvm.lifetime.start.p0(i64 4, ptr %7) #24
  %19 = load i32, ptr %5, align 4, !tbaa !21
  %20 = load i32, ptr %6, align 4, !tbaa !21
  %21 = and i32 %19, %20
  store i32 %21, ptr %7, align 4, !tbaa !21
  call void @llvm.lifetime.start.p0(i64 4, ptr %8) #24
  store i32 1, ptr %8, align 4, !tbaa !21
  br label %22

22:                                               ; preds = %44, %14
  %23 = load i32, ptr %5, align 4, !tbaa !21
  %24 = load ptr, ptr %4, align 8, !tbaa !61
  %25 = getelementptr inbounds nuw %struct.rb_id_table, ptr %24, i32 0, i32 3
  %26 = load ptr, ptr %25, align 8, !tbaa !66
  %27 = load i32, ptr %7, align 4, !tbaa !21
  %28 = sext i32 %27 to i64
  %29 = getelementptr %struct.rb_id_item, ptr %26, i64 %28
  %30 = getelementptr inbounds nuw %struct.rb_id_item, ptr %29, i32 0, i32 0
  %31 = load i32, ptr %30, align 8, !tbaa !74
  %32 = icmp ne i32 %23, %31
  br i1 %32, label %33, label %52

33:                                               ; preds = %22
  %34 = load ptr, ptr %4, align 8, !tbaa !61
  %35 = getelementptr inbounds nuw %struct.rb_id_table, ptr %34, i32 0, i32 3
  %36 = load ptr, ptr %35, align 8, !tbaa !66
  %37 = load i32, ptr %7, align 4, !tbaa !21
  %38 = sext i32 %37 to i64
  %39 = getelementptr %struct.rb_id_item, ptr %36, i64 %38
  %40 = getelementptr inbounds nuw %struct.rb_id_item, ptr %39, i32 0, i32 1
  %41 = load i32, ptr %40, align 4, !tbaa !75
  %42 = icmp ne i32 %41, 0
  br i1 %42, label %44, label %43

43:                                               ; preds = %33
  store i32 -1, ptr %3, align 4
  store i32 1, ptr %9, align 4
  br label %54

44:                                               ; preds = %33
  %45 = load i32, ptr %7, align 4, !tbaa !21
  %46 = load i32, ptr %8, align 4, !tbaa !21
  %47 = add i32 %45, %46
  %48 = load i32, ptr %6, align 4, !tbaa !21
  %49 = and i32 %47, %48
  store i32 %49, ptr %7, align 4, !tbaa !21
  %50 = load i32, ptr %8, align 4, !tbaa !21
  %51 = add i32 %50, 1
  store i32 %51, ptr %8, align 4, !tbaa !21
  br label %22, !llvm.loop !76

52:                                               ; preds = %22
  %53 = load i32, ptr %7, align 4, !tbaa !21
  store i32 %53, ptr %3, align 4
  store i32 1, ptr %9, align 4
  br label %54

54:                                               ; preds = %52, %43
  call void @llvm.lifetime.end.p0(i64 4, ptr %8) #24
  call void @llvm.lifetime.end.p0(i64 4, ptr %7) #24
  call void @llvm.lifetime.end.p0(i64 4, ptr %6) #24
  br label %56

55:                                               ; preds = %2
  store i32 -1, ptr %3, align 4
  br label %56

56:                                               ; preds = %55, %54
  %57 = load i32, ptr %3, align 4
  ret i32 %57
}

; Function Attrs: inlinehint nounwind sspstrong uwtable
define internal i32 @id2key(i64 noundef %0) #4 {
  %2 = alloca i64, align 8
  store i64 %0, ptr %2, align 8, !tbaa !11
  %3 = load i64, ptr %2, align 8, !tbaa !11
  %4 = call i32 @rb_id_to_serial(i64 noundef %3)
  ret i32 %4
}

; Function Attrs: nounwind sspstrong uwtable
define hidden i32 @rb_id_table_lookup(ptr noundef %0, i64 noundef %1, ptr noundef %2) #0 {
  %4 = alloca i32, align 4
  %5 = alloca ptr, align 8
  %6 = alloca i64, align 8
  %7 = alloca ptr, align 8
  %8 = alloca i32, align 4
  %9 = alloca i32, align 4
  %10 = alloca i32, align 4
  store ptr %0, ptr %5, align 8, !tbaa !61
  store i64 %1, ptr %6, align 8, !tbaa !11
  store ptr %2, ptr %7, align 8, !tbaa !46
  call void @llvm.lifetime.start.p0(i64 4, ptr %8) #24
  %11 = load i64, ptr %6, align 8, !tbaa !11
  %12 = call i32 @id2key(i64 noundef %11)
  store i32 %12, ptr %8, align 4, !tbaa !21
  call void @llvm.lifetime.start.p0(i64 4, ptr %9) #24
  %13 = load ptr, ptr %5, align 8, !tbaa !61
  %14 = load i32, ptr %8, align 4, !tbaa !21
  %15 = call i32 @hash_table_index(ptr noundef %13, i32 noundef %14)
  store i32 %15, ptr %9, align 4, !tbaa !21
  %16 = load i32, ptr %9, align 4, !tbaa !21
  %17 = icmp sge i32 %16, 0
  br i1 %17, label %18, label %28

18:                                               ; preds = %3
  %19 = load ptr, ptr %5, align 8, !tbaa !61
  %20 = getelementptr inbounds nuw %struct.rb_id_table, ptr %19, i32 0, i32 3
  %21 = load ptr, ptr %20, align 8, !tbaa !66
  %22 = load i32, ptr %9, align 4, !tbaa !21
  %23 = sext i32 %22 to i64
  %24 = getelementptr %struct.rb_id_item, ptr %21, i64 %23
  %25 = getelementptr inbounds nuw %struct.rb_id_item, ptr %24, i32 0, i32 2
  %26 = load i64, ptr %25, align 8, !tbaa !72
  %27 = load ptr, ptr %7, align 8, !tbaa !46
  store i64 %26, ptr %27, align 8, !tbaa !11
  store i32 1, ptr %4, align 4
  store i32 1, ptr %10, align 4
  br label %29

28:                                               ; preds = %3
  store i32 0, ptr %4, align 4
  store i32 1, ptr %10, align 4
  br label %29

29:                                               ; preds = %28, %18
  call void @llvm.lifetime.end.p0(i64 4, ptr %9) #24
  call void @llvm.lifetime.end.p0(i64 4, ptr %8) #24
  %30 = load i32, ptr %4, align 4
  ret i32 %30
}