; Function Attrs: nofree norecurse nosync nounwind sspstrong memory(read, argmem: readwrite, inaccessiblemem: none) uwtable
define hidden range(i32 0, 2) i32 @rb_id_table_lookup(ptr noundef readonly captures(none) %0, i64 noundef %1, ptr noundef writeonly captures(none) %2) local_unnamed_addr #11 {
  %4 = icmp ugt i64 %1, 170
  %5 = lshr i64 %1, 4
  %.0.in.i.i = select i1 %4, i64 %5, i64 %1
  %.0.i.i = trunc i64 %.0.in.i.i to i32
  %6 = load i32, ptr %0, align 8, !tbaa !82
  %7 = icmp sgt i32 %6, 0
  br i1 %7, label %8, label %hash_table_index.exit.thread

8:                                                ; preds = %3
  %9 = add nsw i32 %6, -1
  %10 = getelementptr inbounds nuw i8, ptr %0, i64 16
  %11 = load ptr, ptr %10, align 8, !tbaa !85
  %.01418.i = and i32 %9, %.0.i.i
  %12 = zext nneg i32 %.01418.i to i64
  %13 = getelementptr %struct.rb_id_item, ptr %11, i64 %12
  %14 = load i32, ptr %13, align 8, !tbaa !88
  %.not19.i = icmp eq i32 %14, %.0.i.i
  br i1 %.not19.i, label %hash_table_index.exit.thread9, label %.lr.ph.i

.lr.ph.i:                                         ; preds = %8, %18
  %15 = phi i64 [ %21, %18 ], [ %12, %8 ]
  %.01421.i = phi i32 [ %.014.i, %18 ], [ %.01418.i, %8 ]
  %.020.i = phi i32 [ %20, %18 ], [ 1, %8 ]
  %16 = getelementptr %struct.rb_id_item, ptr %11, i64 %15, i32 1
  %17 = load i32, ptr %16, align 4, !tbaa !90
  %.not17.i = icmp eq i32 %17, 0
  br i1 %.not17.i, label %hash_table_index.exit.thread, label %18

18:                                               ; preds = %.lr.ph.i
  %19 = add i32 %.020.i, %.01421.i
  %20 = add i32 %.020.i, 1
  %.014.i = and i32 %19, %9
  %21 = zext nneg i32 %.014.i to i64
  %22 = getelementptr %struct.rb_id_item, ptr %11, i64 %21
  %23 = load i32, ptr %22, align 8, !tbaa !88
  %.not.i = icmp eq i32 %23, %.0.i.i
  br i1 %.not.i, label %hash_table_index.exit, label %.lr.ph.i, !llvm.loop !91

hash_table_index.exit:                            ; preds = %18
  %24 = icmp sgt i32 %.014.i, -1
  br i1 %24, label %hash_table_index.exit.thread9, label %hash_table_index.exit.thread

hash_table_index.exit.thread9:                    ; preds = %8, %hash_table_index.exit
  %.pre-phi = phi i64 [ %12, %8 ], [ %21, %hash_table_index.exit ]
  %25 = getelementptr %struct.rb_id_item, ptr %11, i64 %.pre-phi, i32 2
  %26 = load i64, ptr %25, align 8, !tbaa !92
  store i64 %26, ptr %2, align 8, !tbaa !32
  br label %hash_table_index.exit.thread

hash_table_index.exit.thread:                     ; preds = %.lr.ph.i, %3, %hash_table_index.exit, %hash_table_index.exit.thread9
  %.0 = phi i32 [ 1, %hash_table_index.exit.thread9 ], [ 0, %hash_table_index.exit ], [ 0, %3 ], [ 0, %.lr.ph.i ]
  ret i32 %.0
}